; Function Attrs: mustprogress nofree norecurse nosync nounwind willreturn memory(readwrite, inaccessiblemem: none) uwtable
define hidden void @_ZN16NullCheckVisitor15do_StoreIndexedEP12StoreIndexed(ptr nocapture noundef nonnull readonly align 8 dereferenceable(16) %0, ptr nocapture noundef %1) unnamed_addr #4 align 2 {
  %3 = getelementptr inbounds i8, ptr %0, i64 8
  %4 = load ptr, ptr %3, align 8
  %5 = getelementptr inbounds i8, ptr %1, i64 96
  %6 = load ptr, ptr %5, align 8
  %7 = getelementptr inbounds i8, ptr %4, i64 32
  %8 = load ptr, ptr %7, align 8
  %9 = getelementptr inbounds i8, ptr %6, i64 8
  %10 = load i32, ptr %9, align 8
  %11 = sext i32 %10 to i64
  %12 = load ptr, ptr %8, align 8
  %13 = lshr i64 %11, 6
  %14 = getelementptr inbounds i64, ptr %12, i64 %13
  %15 = load i64, ptr %14, align 8
  %16 = and i64 %11, 63
  %17 = shl nuw i64 1, %16
  %18 = and i64 %17, %15
  %.not.i = icmp eq i64 %18, 0
  br i1 %.not.i, label %23, label %19

19:                                               ; preds = %2
  %20 = getelementptr inbounds i8, ptr %1, i64 56
  %21 = load i32, ptr %20, align 8
  %22 = and i32 %21, -2
  store i32 %22, ptr %20, align 8
  br label %_ZN19NullCheckEliminator19handle_StoreIndexedEP12StoreIndexed.exit

23:                                               ; preds = %2
  %24 = or i64 %17, %15
  store i64 %24, ptr %14, align 8
  %25 = getelementptr inbounds i8, ptr %1, i64 56
  %26 = load i32, ptr %25, align 8
  %27 = or i32 %26, 1
  store i32 %27, ptr %25, align 8
  br label %_ZN19NullCheckEliminator19handle_StoreIndexedEP12StoreIndexed.exit

_ZN19NullCheckEliminator19handle_StoreIndexedEP12StoreIndexed.exit: ; preds = %19, %23
  %28 = getelementptr inbounds i8, ptr %4, i64 80
  store ptr null, ptr %28, align 8
  ret void
}